; ModuleID = '25/1157.cpp'
source_filename = "25/1157.cpp"
target datalayout = "e-m:e-p270:32:32-p271:32:32-p272:64:64-i64:64-f80:128-n8:16:32:64-S128"
target triple = "x86_64-pc-linux-gnu"

%"class.std::ios_base::Init" = type { i8 }
%"class.std::basic_istream" = type { i32 (...)**, i64, %"class.std::basic_ios" }
%"class.std::basic_ios" = type { %"class.std::ios_base", %"class.std::basic_ostream"*, i8, i8, %"class.std::basic_streambuf"*, %"class.std::ctype"*, %"class.std::num_put"*, %"class.std::num_get"* }
%"class.std::ios_base" = type { i32 (...)**, i64, i64, i32, i32, i32, %"struct.std::ios_base::_Callback_list"*, %"struct.std::ios_base::_Words", [8 x %"struct.std::ios_base::_Words"], i32, %"struct.std::ios_base::_Words"*, %"class.std::locale" }
%"struct.std::ios_base::_Callback_list" = type { %"struct.std::ios_base::_Callback_list"*, void (i32, %"class.std::ios_base"*, i32)*, i32, i32 }
%"struct.std::ios_base::_Words" = type { i8*, i64 }
%"class.std::locale" = type { %"class.std::locale::_Impl"* }
%"class.std::locale::_Impl" = type { i32, %"class.std::locale::facet"**, i64, %"class.std::locale::facet"**, i8** }
%"class.std::locale::facet" = type <{ i32 (...)**, i32, [4 x i8] }>
%"class.std::basic_ostream" = type { i32 (...)**, %"class.std::basic_ios" }
%"class.std::basic_streambuf" = type { i32 (...)**, i8*, i8*, i8*, i8*, i8*, i8*, %"class.std::locale" }
%"class.std::ctype" = type <{ %"class.std::locale::facet.base", [4 x i8], %struct.__locale_struct*, i8, [7 x i8], i32*, i32*, i16*, i8, [256 x i8], [256 x i8], i8, [6 x i8] }>
%"class.std::locale::facet.base" = type <{ i32 (...)**, i32 }>
%struct.__locale_struct = type { [13 x %struct.__locale_data*], i16*, i32*, i32*, [13 x i8*] }
%struct.__locale_data = type opaque
%"class.std::num_put" = type { %"class.std::locale::facet.base", [4 x i8] }
%"class.std::num_get" = type { %"class.std::locale::facet.base", [4 x i8] }

@_ZStL8__ioinit = internal global %"class.std::ios_base::Init" zeroinitializer, align 1
@__dso_handle = external hidden global i8
@_ZSt3cin = external dso_local global %"class.std::basic_istream", align 8
@_ZSt4cout = external dso_local global %"class.std::basic_ostream", align 8
@llvm.global_ctors = appending global [1 x { i32, void ()*, i8* }] [{ i32, void ()*, i8* } { i32 65535, void ()* @_GLOBAL__sub_I_1157.cpp, i8* null }]

; Function Attrs: noinline uwtable
define internal void @__cxx_global_var_init() #0 section ".text.startup" {
  call void @_ZNSt8ios_base4InitC1Ev(%"class.std::ios_base::Init"* @_ZStL8__ioinit)
  %1 = call i32 @__cxa_atexit(void (i8*)* bitcast (void (%"class.std::ios_base::Init"*)* @_ZNSt8ios_base4InitD1Ev to void (i8*)*), i8* getelementptr inbounds (%"class.std::ios_base::Init", %"class.std::ios_base::Init"* @_ZStL8__ioinit, i32 0, i32 0), i8* @__dso_handle) #3
  ret void
}

declare dso_local void @_ZNSt8ios_base4InitC1Ev(%"class.std::ios_base::Init"*) unnamed_addr #1

; Function Attrs: nounwind
declare dso_local void @_ZNSt8ios_base4InitD1Ev(%"class.std::ios_base::Init"*) unnamed_addr #2

; Function Attrs: nounwind
declare dso_local i32 @__cxa_atexit(void (i8*)*, i8*, i8*) #3

; Function Attrs: noinline norecurse uwtable
define dso_local i32 @main() #4 {
  %1 = alloca i32, align 4
  %2 = alloca i32, align 4
  %3 = alloca i32, align 4
  %4 = alloca i32, align 4
  %5 = alloca i32, align 4
  %6 = alloca i32, align 4
  %7 = alloca [300 x i8], align 16
  %8 = alloca [300 x i8], align 16
  store i32 0, i32* %1, align 4
  store i32 0, i32* %3, align 4
  %9 = call dereferenceable(280) %"class.std::basic_istream"* @_ZNSirsERi(%"class.std::basic_istream"* @_ZSt3cin, i32* dereferenceable(4) %2)
  %10 = getelementptr inbounds [300 x i8], [300 x i8]* %7, i64 0, i64 0
  store i8 49, i8* %10, align 16
  br label %11

11:                                               ; preds = %79, %0
  %12 = load i32, i32* %2, align 4
  %13 = icmp sgt i32 %12, 0
  br i1 %13, label %14, label %82

14:                                               ; preds = %11
  store i32 0, i32* %5, align 4
  store i32 0, i32* %4, align 4
  %15 = load i32, i32* %3, align 4
  %16 = add nsw i32 %15, 1
  store i32 %16, i32* %6, align 4
  %17 = load i32, i32* %6, align 4
  %18 = add nsw i32 %17, -1
  store i32 %18, i32* %6, align 4
  store i32 0, i32* %3, align 4
  br label %19

19:                                               ; preds = %44, %14
  %20 = load i32, i32* %3, align 4
  %21 = load i32, i32* %6, align 4
  %22 = icmp sle i32 %20, %21
  br i1 %22, label %23, label %47

23:                                               ; preds = %19
  %24 = load i32, i32* %4, align 4
  %25 = load i32, i32* %6, align 4
  %26 = load i32, i32* %3, align 4
  %27 = sub nsw i32 %25, %26
  %28 = sext i32 %27 to i64
  %29 = getelementptr inbounds [300 x i8], [300 x i8]* %7, i64 0, i64 %28
  %30 = load i8, i8* %29, align 1
  %31 = sext i8 %30 to i32
  %32 = sub nsw i32 %31, 48
  %33 = mul nsw i32 %32, 2
  %34 = add nsw i32 %24, %33
  store i32 %34, i32* %5, align 4
  %35 = load i32, i32* %5, align 4
  %36 = srem i32 %35, 10
  %37 = add nsw i32 %36, 48
  %38 = trunc i32 %37 to i8
  %39 = load i32, i32* %3, align 4
  %40 = sext i32 %39 to i64
  %41 = getelementptr inbounds [300 x i8], [300 x i8]* %8, i64 0, i64 %40
  store i8 %38, i8* %41, align 1
  %42 = load i32, i32* %5, align 4
  %43 = sdiv i32 %42, 10
  store i32 %43, i32* %4, align 4
  br label %44

44:                                               ; preds = %23
  %45 = load i32, i32* %3, align 4
  %46 = add nsw i32 %45, 1
  store i32 %46, i32* %3, align 4
  br label %19

47:                                               ; preds = %19
  %48 = load i32, i32* %4, align 4
  %49 = icmp ne i32 %48, 0
  br i1 %49, label %50, label %57

50:                                               ; preds = %47
  %51 = load i32, i32* %4, align 4
  %52 = add nsw i32 %51, 48
  %53 = trunc i32 %52 to i8
  %54 = load i32, i32* %3, align 4
  %55 = sext i32 %54 to i64
  %56 = getelementptr inbounds [300 x i8], [300 x i8]* %8, i64 0, i64 %55
  store i8 %53, i8* %56, align 1
  br label %60

57:                                               ; preds = %47
  %58 = load i32, i32* %3, align 4
  %59 = add nsw i32 %58, -1
  store i32 %59, i32* %3, align 4
  br label %60

60:                                               ; preds = %57, %50
  store i32 0, i32* %6, align 4
  br label %61

61:                                               ; preds = %75, %60
  %62 = load i32, i32* %6, align 4
  %63 = load i32, i32* %3, align 4
  %64 = icmp sle i32 %62, %63
  br i1 %64, label %65, label %78

65:                                               ; preds = %61
  %66 = load i32, i32* %3, align 4
  %67 = load i32, i32* %6, align 4
  %68 = sub nsw i32 %66, %67
  %69 = sext i32 %68 to i64
  %70 = getelementptr inbounds [300 x i8], [300 x i8]* %8, i64 0, i64 %69
  %71 = load i8, i8* %70, align 1
  %72 = load i32, i32* %6, align 4
  %73 = sext i32 %72 to i64
  %74 = getelementptr inbounds [300 x i8], [300 x i8]* %7, i64 0, i64 %73
  store i8 %71, i8* %74, align 1
  br label %75

75:                                               ; preds = %65
  %76 = load i32, i32* %6, align 4
  %77 = add nsw i32 %76, 1
  store i32 %77, i32* %6, align 4
  br label %61

78:                                               ; preds = %61
  br label %79

79:                                               ; preds = %78
  %80 = load i32, i32* %2, align 4
  %81 = add nsw i32 %80, -1
  store i32 %81, i32* %2, align 4
  br label %11

82:                                               ; preds = %11
  store i32 0, i32* %6, align 4
  br label %83

83:                                               ; preds = %93, %82
  %84 = load i32, i32* %6, align 4
  %85 = load i32, i32* %3, align 4
  %86 = icmp sle i32 %84, %85
  br i1 %86, label %87, label %96

87:                                               ; preds = %83
  %88 = load i32, i32* %6, align 4
  %89 = sext i32 %88 to i64
  %90 = getelementptr inbounds [300 x i8], [300 x i8]* %7, i64 0, i64 %89
  %91 = load i8, i8* %90, align 1
  %92 = call dereferenceable(272) %"class.std::basic_ostream"* @_ZStlsISt11char_traitsIcEERSt13basic_ostreamIcT_ES5_c(%"class.std::basic_ostream"* dereferenceable(272) @_ZSt4cout, i8 signext %91)
  br label %93

93:                                               ; preds = %87
  %94 = load i32, i32* %6, align 4
  %95 = add nsw i32 %94, 1
  store i32 %95, i32* %6, align 4
  br label %83

96:                                               ; preds = %83
  ret i32 0
}

declare dso_local dereferenceable(280) %"class.std::basic_istream"* @_ZNSirsERi(%"class.std::basic_istream"*, i32* dereferenceable(4)) #1

declare dso_local dereferenceable(272) %"class.std::basic_ostream"* @_ZStlsISt11char_traitsIcEERSt13basic_ostreamIcT_ES5_c(%"class.std::basic_ostream"* dereferenceable(272), i8 signext) #1

; Function Attrs: noinline uwtable
define internal void @_GLOBAL__sub_I_1157.cpp() #0 section ".text.startup" {
  call void @__cxx_global_var_init()
  ret void
}


!llvm.module.flags = !{!0}
!llvm.ident = !{!1}

!0 = !{i32 1, !"wchar_size", i32 4}
!1 = !{!"clang version 10.0.0-4ubuntu1 "}
